; Function Attrs: nounwind uwtable
define ptr @l_Nat_foldTR_loop___at_Lean_Elab_Tactic_BVDecide_Frontend_Normalize_mkApplyProjControlDiscrPath___spec__1(ptr readnone captures(none) %0, ptr readnone captures(none) %1, ptr noundef %2, ptr readnone captures(none) %3, ptr noundef %4) local_unnamed_addr #0 {
  br label %6

6:                                                ; preds = %lean_dec.exit, %5
  %.016 = phi ptr [ %4, %5 ], [ %28, %lean_dec.exit ]
  %.014 = phi ptr [ %2, %5 ], [ %.1.i24, %lean_dec.exit ]
  %7 = ptrtoint ptr %.014 to i64
  %8 = and i64 %7, 1
  %.not = icmp eq i64 %8, 0
  br i1 %.not, label %lean_nat_eq.exit.thread, label %lean_nat_eq.exit, !prof !14

lean_nat_eq.exit:                                 ; preds = %6
  %.not33 = icmp eq ptr %.014, inttoptr (i64 1 to ptr)
  br i1 %.not33, label %.loopexit, label %10

lean_nat_eq.exit.thread:                          ; preds = %6
  %9 = tail call zeroext i1 @lean_nat_big_eq(ptr noundef %.014, ptr noundef nonnull inttoptr (i64 1 to ptr)) #3
  br i1 %9, label %.thread25, label %.thread

10:                                               ; preds = %lean_nat_eq.exit
  %11 = icmp ult ptr %.014, inttoptr (i64 2 to ptr)
  br i1 %11, label %lean_dec.exit, label %12

12:                                               ; preds = %10
  %13 = add i64 %7, -2
  %14 = inttoptr i64 %13 to ptr
  br label %lean_dec.exit

.thread:                                          ; preds = %lean_nat_eq.exit.thread
  %15 = tail call ptr @lean_nat_big_sub(ptr noundef %.014, ptr noundef nonnull inttoptr (i64 3 to ptr)) #3
  %16 = load i32, ptr %.014, align 4, !tbaa !4
  %17 = icmp sgt i32 %16, 1
  br i1 %17, label %18, label %20, !prof !13

18:                                               ; preds = %.thread
  %19 = add nsw i32 %16, -1
  store i32 %19, ptr %.014, align 4, !tbaa !4
  br label %lean_dec.exit

20:                                               ; preds = %.thread
  %.not.i = icmp eq i32 %16, 0
  br i1 %.not.i, label %lean_dec.exit, label %21

21:                                               ; preds = %20
  tail call void @lean_dec_ref_cold(ptr noundef nonnull %.014) #3
  br label %lean_dec.exit

.thread25:                                        ; preds = %lean_nat_eq.exit.thread
  %22 = load i32, ptr %.014, align 4, !tbaa !4
  %23 = icmp sgt i32 %22, 1
  br i1 %23, label %24, label %26, !prof !13

24:                                               ; preds = %.thread25
  %25 = add nsw i32 %22, -1
  store i32 %25, ptr %.014, align 4, !tbaa !4
  br label %.loopexit

26:                                               ; preds = %.thread25
  %.not.i19 = icmp eq i32 %22, 0
  br i1 %.not.i19, label %.loopexit, label %27

27:                                               ; preds = %26
  tail call void @lean_dec_ref_cold(ptr noundef nonnull %.014) #3
  br label %.loopexit

lean_dec.exit:                                    ; preds = %12, %10, %18, %20, %21
  %.1.i24 = phi ptr [ %15, %18 ], [ %15, %20 ], [ %15, %21 ], [ inttoptr (i64 1 to ptr), %10 ], [ %14, %12 ]
  %28 = tail call ptr @lean_array_push(ptr noundef %.016, ptr noundef nonnull inttoptr (i64 7 to ptr)) #3
  br label %6

.loopexit:                                        ; preds = %lean_nat_eq.exit, %27, %26, %24
  ret ptr %.016
}